	.file	"bubble_sort.c"
	.section .rdata,"dr"
LC0:
	.ascii "%d \0"
	.text
	.globl	_display
	.def	_display;	.scl	2;	.type	32;	.endef
_display:
LFB15:
	.cfi_startproc
	pushl	%ebp
	.cfi_def_cfa_offset 8
	.cfi_offset 5, -8
	movl	%esp, %ebp
	.cfi_def_cfa_register 5
	subl	$40, %esp
	movl	$0, -12(%ebp)
	jmp	L2
L3:
	movl	-12(%ebp), %eax
	leal	0(,%eax,4), %edx
	movl	8(%ebp), %eax
	addl	%edx, %eax
	movl	(%eax), %eax
	movl	%eax, 4(%esp)
	movl	$LC0, (%esp)
	call	_printf
	addl	$1, -12(%ebp)
L2:
	movl	-12(%ebp), %eax
	cmpl	12(%ebp), %eax
	jl	L3
	movl	$10, (%esp)
	call	_putchar
	nop
	leave
	.cfi_restore 5
	.cfi_def_cfa 4, 4
	ret
	.cfi_endproc
LFE15:
	.globl	_swap
	.def	_swap;	.scl	2;	.type	32;	.endef
_swap:
LFB16:
	.cfi_startproc
	pushl	%ebp
	.cfi_def_cfa_offset 8
	.cfi_offset 5, -8
	movl	%esp, %ebp
	.cfi_def_cfa_register 5
	subl	$16, %esp
	movl	8(%ebp), %eax
	movl	(%eax), %eax
	movl	%eax, -4(%ebp)
	movl	12(%ebp), %eax
	movl	(%eax), %edx
	movl	8(%ebp), %eax
	movl	%edx, (%eax)
	movl	12(%ebp), %eax
	movl	-4(%ebp), %edx
	movl	%edx, (%eax)
	nop
	leave
	.cfi_restore 5
	.cfi_def_cfa 4, 4
	ret
	.cfi_endproc
LFE16:
	.globl	_bubbleSort
	.def	_bubbleSort;	.scl	2;	.type	32;	.endef
_bubbleSort:
LFB17:
	.cfi_startproc
	pushl	%ebp
	.cfi_def_cfa_offset 8
	.cfi_offset 5, -8
	movl	%esp, %ebp
	.cfi_def_cfa_register 5
	subl	$24, %esp
	movl	$0, -4(%ebp)
	jmp	L6
L12:
	movb	$0, -5(%ebp)
	movl	$0, -12(%ebp)
	jmp	L7
L9:
	movl	-12(%ebp), %eax
	leal	0(,%eax,4), %edx
	movl	8(%ebp), %eax
	addl	%edx, %eax
	movl	(%eax), %edx
	movl	-12(%ebp), %eax
	addl	$1, %eax
	leal	0(,%eax,4), %ecx
	movl	8(%ebp), %eax
	addl	%ecx, %eax
	movl	(%eax), %eax
	cmpl	%eax, %edx
	jle	L8
	movl	-12(%ebp), %eax
	addl	$1, %eax
	leal	0(,%eax,4), %edx
	movl	8(%ebp), %eax
	addl	%eax, %edx
	movl	-12(%ebp), %eax
	leal	0(,%eax,4), %ecx
	movl	8(%ebp), %eax
	addl	%ecx, %eax
	movl	%edx, 4(%esp)
	movl	%eax, (%esp)
	call	_swap
	movb	$1, -5(%ebp)
L8:
	addl	$1, -12(%ebp)
L7:
	movl	12(%ebp), %eax
	subl	$1, %eax
	subl	-4(%ebp), %eax
	cmpl	-12(%ebp), %eax
	jg	L9
	movzbl	-5(%ebp), %eax
	xorl	$1, %eax
	testb	%al, %al
	jne	L13
	addl	$1, -4(%ebp)
L6:
	movl	12(%ebp), %eax
	subl	$1, %eax
	cmpl	-4(%ebp), %eax
	jg	L12
	jmp	L11
L13:
	nop
L11:
	nop
	leave
	.cfi_restore 5
	.cfi_def_cfa 4, 4
	ret
	.cfi_endproc
LFE17:
	.section .rdata,"dr"
LC1:
	.ascii "data/src/bubble_sort.c\0"
LC2:
	.ascii "arr[i] <= arr[i + 1]\0"
	.text
	.globl	_test
	.def	_test;	.scl	2;	.type	32;	.endef
_test:
LFB18:
	.cfi_startproc
	pushl	%ebp
	.cfi_def_cfa_offset 8
	.cfi_offset 5, -8
	movl	%esp, %ebp
	.cfi_def_cfa_register 5
	pushl	%ebx
	subl	$36, %esp
	.cfi_offset 3, -12
	movl	$10, -20(%ebp)
	movl	-20(%ebp), %eax
	movl	$4, 4(%esp)
	movl	%eax, (%esp)
	call	_calloc
	movl	%eax, -24(%ebp)
	movl	$0, -12(%ebp)
	jmp	L15
L16:
	movl	-12(%ebp), %eax
	leal	0(,%eax,4), %edx
	movl	-24(%ebp), %eax
	leal	(%edx,%eax), %ebx
	call	_rand
	movl	%eax, %ecx
	movl	$1374389535, %edx
	movl	%ecx, %eax
	imull	%edx
	sarl	$5, %edx
	movl	%ecx, %eax
	sarl	$31, %eax
	subl	%eax, %edx
	movl	%edx, %eax
	imull	$100, %eax, %eax
	subl	%eax, %ecx
	movl	%ecx, %eax
	movl	%eax, (%ebx)
	addl	$1, -12(%ebp)
L15:
	movl	-12(%ebp), %eax
	cmpl	-20(%ebp), %eax
	jl	L16
	movl	-20(%ebp), %eax
	movl	%eax, 4(%esp)
	movl	-24(%ebp), %eax
	movl	%eax, (%esp)
	call	_bubbleSort
	movl	$0, -16(%ebp)
	jmp	L17
L19:
	movl	-16(%ebp), %eax
	leal	0(,%eax,4), %edx
	movl	-24(%ebp), %eax
	addl	%edx, %eax
	movl	(%eax), %edx
	movl	-16(%ebp), %eax
	addl	$1, %eax
	leal	0(,%eax,4), %ecx
	movl	-24(%ebp), %eax
	addl	%ecx, %eax
	movl	(%eax), %eax
	cmpl	%eax, %edx
	jle	L18
	movl	$83, 8(%esp)
	movl	$LC1, 4(%esp)
	movl	$LC2, (%esp)
	call	__assert
L18:
	addl	$1, -16(%ebp)
L17:
	movl	-20(%ebp), %eax
	subl	$1, %eax
	cmpl	-16(%ebp), %eax
	jg	L19
	movl	-24(%ebp), %eax
	movl	%eax, (%esp)
	call	_free
	nop
	addl	$36, %esp
	popl	%ebx
	.cfi_restore 3
	popl	%ebp
	.cfi_restore 5
	.cfi_def_cfa 4, 4
	ret
	.cfi_endproc
LFE18:
	.def	___main;	.scl	2;	.type	32;	.endef
	.globl	_main
	.def	_main;	.scl	2;	.type	32;	.endef
_main:
LFB19:
	.cfi_startproc
	pushl	%ebp
	.cfi_def_cfa_offset 8
	.cfi_offset 5, -8
	movl	%esp, %ebp
	.cfi_def_cfa_register 5
	andl	$-16, %esp
	subl	$16, %esp
	call	___main
	movl	$0, (%esp)
	call	_time
	movl	%eax, (%esp)
	call	_srand
	call	_test
	movl	$0, %eax
	leave
	.cfi_restore 5
	.cfi_def_cfa 4, 4
	ret
	.cfi_endproc
LFE19:
	.ident	"GCC: (MinGW.org GCC-6.3.0-1) 6.3.0"
	.def	_printf;	.scl	2;	.type	32;	.endef
	.def	_putchar;	.scl	2;	.type	32;	.endef
	.def	_calloc;	.scl	2;	.type	32;	.endef
	.def	_rand;	.scl	2;	.type	32;	.endef
	.def	__assert;	.scl	2;	.type	32;	.endef
	.def	_free;	.scl	2;	.type	32;	.endef
	.def	_time;	.scl	2;	.type	32;	.endef
	.def	_srand;	.scl	2;	.type	32;	.endef
