	.file	"functionsubtract3.c"
	.def	___main;	.scl	2;	.type	32;	.endef
	.section .rdata,"dr"
LC0:
	.ascii "Enter first number:\0"
LC1:
	.ascii "%d\0"
LC2:
	.ascii "Enter second number:\0"
LC3:
	.ascii "Subtraction of two numbers=%d\0"
	.text
	.globl	_main
	.def	_main;	.scl	2;	.type	32;	.endef
_main:
LFB10:
	.cfi_startproc
	pushl	%ebp
	.cfi_def_cfa_offset 8
	.cfi_offset 5, -8
	movl	%esp, %ebp
	.cfi_def_cfa_register 5
	andl	$-16, %esp
	subl	$32, %esp
	call	___main
	movl	$LC0, (%esp)
	call	_printf
	leal	24(%esp), %eax
	movl	%eax, 4(%esp)
	movl	$LC1, (%esp)
	call	_scanf
	movl	$LC2, (%esp)
	call	_printf
	leal	20(%esp), %eax
	movl	%eax, 4(%esp)
	movl	$LC1, (%esp)
	call	_scanf
	movl	20(%esp), %edx
	movl	24(%esp), %eax
	movl	%edx, 4(%esp)
	movl	%eax, (%esp)
	call	_subtract
	movl	%eax, 28(%esp)
	movl	28(%esp), %eax
	movl	%eax, 4(%esp)
	movl	$LC3, (%esp)
	call	_printf
	nop
	leave
	.cfi_restore 5
	.cfi_def_cfa 4, 4
	ret
	.cfi_endproc
LFE10:
	.globl	_subtract
	.def	_subtract;	.scl	2;	.type	32;	.endef
_subtract:
LFB11:
	.cfi_startproc
	pushl	%ebp
	.cfi_def_cfa_offset 8
	.cfi_offset 5, -8
	movl	%esp, %ebp
	.cfi_def_cfa_register 5
	subl	$16, %esp
	movl	8(%ebp), %eax
	subl	12(%ebp), %eax
	movl	%eax, -4(%ebp)
	movl	-4(%ebp), %eax
	leave
	.cfi_restore 5
	.cfi_def_cfa 4, 4
	ret
	.cfi_endproc
LFE11:
	.ident	"GCC: (MinGW.org GCC-6.3.0-1) 6.3.0"
	.def	_printf;	.scl	2;	.type	32;	.endef
	.def	_scanf;	.scl	2;	.type	32;	.endef
